target datalayout = "e-m:e-p270:32:32-p271:32:32-p272:64:64-i64:64-i128:128-f80:128-n8:16:32:64-S128"
target triple = "x86_64-pc-linux-gnu"

%"struct.Luau::TypeLevel" = type { i32, i32 }
%"struct.Luau::FreeType" = type { i32, %"struct.Luau::TypeLevel", ptr, i8, ptr, ptr }

; Function Attrs: mustprogress uwtable
define dso_local void @_ZN4Luau8FreeTypeC2ENS_9TypeLevelEPKNS_4TypeES4_(ptr noundef nonnull align 8 dereferenceable(48) %0, i64 %1, ptr noundef %2, ptr noundef %3) unnamed_addr #3 align 2 {
  %5 = alloca %"struct.Luau::TypeLevel", align 4
  %6 = alloca ptr, align 8
  %7 = alloca ptr, align 8
  %8 = alloca ptr, align 8
  store i64 %1, ptr %5, align 4
  store ptr %0, ptr %6, align 8, !tbaa !181
  store ptr %2, ptr %7, align 8, !tbaa !29
  store ptr %3, ptr %8, align 8, !tbaa !29
  %9 = load ptr, ptr %6, align 8
  %10 = getelementptr inbounds nuw %"struct.Luau::FreeType", ptr %9, i32 0, i32 0
  %11 = call noundef i32 @_ZN4Luau9Unifiable10freshIndexEv()
  store i32 %11, ptr %10, align 8, !tbaa !183
  %12 = getelementptr inbounds nuw %"struct.Luau::FreeType", ptr %9, i32 0, i32 1
  call void @llvm.memcpy.p0.p0.i64(ptr align 4 %12, ptr align 4 %5, i64 8, i1 false), !tbaa.struct !187
  %13 = getelementptr inbounds nuw %"struct.Luau::FreeType", ptr %9, i32 0, i32 2
  store ptr null, ptr %13, align 8, !tbaa !188
  %14 = getelementptr inbounds nuw %"struct.Luau::FreeType", ptr %9, i32 0, i32 3
  store i8 0, ptr %14, align 8, !tbaa !189
  %15 = getelementptr inbounds nuw %"struct.Luau::FreeType", ptr %9, i32 0, i32 4
  %16 = load ptr, ptr %7, align 8, !tbaa !29
  store ptr %16, ptr %15, align 8, !tbaa !190
  %17 = getelementptr inbounds nuw %"struct.Luau::FreeType", ptr %9, i32 0, i32 5
  %18 = load ptr, ptr %8, align 8, !tbaa !29
  store ptr %18, ptr %17, align 8, !tbaa !191
  ret void
}