; Function Attrs: mustprogress uwtable
define dso_local void @_ZN4Luau8FreeTypeC2ENS_9TypeLevelEPKNS_4TypeES4_(ptr noundef nonnull writeonly align 8 captures(none) dereferenceable(48) initializes((0, 12), (16, 25), (32, 48)) %0, i64 %1, ptr noundef %2, ptr noundef %3) unnamed_addr #2 align 2 {
  %5 = tail call noundef i32 @_ZN4Luau9Unifiable10freshIndexEv()
  store i32 %5, ptr %0, align 8, !tbaa !160
  %6 = getelementptr inbounds nuw i8, ptr %0, i64 4
  store i64 %1, ptr %6, align 4
  %7 = getelementptr inbounds nuw i8, ptr %0, i64 16
  store ptr null, ptr %7, align 8, !tbaa !164
  %8 = getelementptr inbounds nuw i8, ptr %0, i64 24
  store i8 0, ptr %8, align 8, !tbaa !165
  %9 = getelementptr inbounds nuw i8, ptr %0, i64 32
  store ptr %2, ptr %9, align 8, !tbaa !166
  %10 = getelementptr inbounds nuw i8, ptr %0, i64 40
  store ptr %3, ptr %10, align 8, !tbaa !167
  ret void
}